target datalayout = "e-m:e-p270:32:32-p271:32:32-p272:64:64-i64:64-i128:128-f80:128-n8:16:32:64-S128"
target triple = "x86_64-pc-linux-gnu"

%"class.icu_77::CanonicalIterator" = type { %"class.icu_77::UObject", %"class.icu_77::UnicodeString", i8, ptr, i32, ptr, ptr, i32, %"class.icu_77::UnicodeString", ptr, ptr }
%"class.icu_77::UObject" = type { ptr }
%"class.icu_77::UnicodeString" = type { %"class.icu_77::Replaceable", %"union.icu_77::UnicodeString::StackBufferOrFields" }
%"class.icu_77::Replaceable" = type { %"class.icu_77::UObject" }
%"union.icu_77::UnicodeString::StackBufferOrFields" = type { %struct.anon.0, [32 x i8] }
%struct.anon.0 = type { i16, i32, i32, ptr }

; Function Attrs: mustprogress uwtable
define void @_ZN6icu_7717CanonicalIterator11cleanPiecesEv(ptr noundef nonnull align 8 dereferenceable(200) %0) #1 align 2 {
  %2 = alloca ptr, align 8
  %3 = alloca i32, align 4
  store ptr %0, ptr %2, align 8, !tbaa !3
  %4 = load ptr, ptr %2, align 8
  call void @llvm.lifetime.start.p0(i64 4, ptr %3) #10
  store i32 0, ptr %3, align 4, !tbaa !35
  %5 = getelementptr inbounds nuw %"class.icu_77::CanonicalIterator", ptr %4, i32 0, i32 3
  %6 = load ptr, ptr %5, align 8, !tbaa !13
  %7 = icmp ne ptr %6, null
  br i1 %7, label %8, label %50

8:                                                ; preds = %1
  store i32 0, ptr %3, align 4, !tbaa !35
  br label %9

9:                                                ; preds = %42, %8
  %10 = load i32, ptr %3, align 4, !tbaa !35
  %11 = getelementptr inbounds nuw %"class.icu_77::CanonicalIterator", ptr %4, i32 0, i32 4
  %12 = load i32, ptr %11, align 8, !tbaa !24
  %13 = icmp slt i32 %10, %12
  br i1 %13, label %14, label %45

14:                                               ; preds = %9
  %15 = getelementptr inbounds nuw %"class.icu_77::CanonicalIterator", ptr %4, i32 0, i32 3
  %16 = load ptr, ptr %15, align 8, !tbaa !13
  %17 = load i32, ptr %3, align 4, !tbaa !35
  %18 = sext i32 %17 to i64
  %19 = getelementptr inbounds ptr, ptr %16, i64 %18
  %20 = load ptr, ptr %19, align 8, !tbaa !8
  %21 = icmp ne ptr %20, null
  br i1 %21, label %22, label %41

22:                                               ; preds = %14
  %23 = getelementptr inbounds nuw %"class.icu_77::CanonicalIterator", ptr %4, i32 0, i32 3
  %24 = load ptr, ptr %23, align 8, !tbaa !13
  %25 = load i32, ptr %3, align 4, !tbaa !35
  %26 = sext i32 %25 to i64
  %27 = getelementptr inbounds ptr, ptr %24, i64 %26
  %28 = load ptr, ptr %27, align 8, !tbaa !8
  %29 = icmp eq ptr %28, null
  br i1 %29, label %40, label %30

30:                                               ; preds = %22
  %31 = getelementptr inbounds i8, ptr %28, i64 -8
  %32 = load i64, ptr %31, align 8
  %33 = getelementptr inbounds %"class.icu_77::UnicodeString", ptr %28, i64 %32
  %34 = icmp eq ptr %28, %33
  br i1 %34, label %39, label %35

35:                                               ; preds = %35, %30
  %36 = phi ptr [ %33, %30 ], [ %37, %35 ]
  %37 = getelementptr inbounds %"class.icu_77::UnicodeString", ptr %36, i64 -1
  call void @_ZN6icu_7713UnicodeStringD1Ev(ptr noundef nonnull align 8 dereferenceable(64) %37) #10
  %38 = icmp eq ptr %37, %28
  br i1 %38, label %39, label %35

39:                                               ; preds = %35, %30
  call void @_ZN6icu_777UMemorydaEPv(ptr noundef %31) #10
  br label %40

40:                                               ; preds = %39, %22
  br label %41

41:                                               ; preds = %40, %14
  br label %42

42:                                               ; preds = %41
  %43 = load i32, ptr %3, align 4, !tbaa !35
  %44 = add nsw i32 %43, 1
  store i32 %44, ptr %3, align 4, !tbaa !35
  br label %9, !llvm.loop !41

45:                                               ; preds = %9
  %46 = getelementptr inbounds nuw %"class.icu_77::CanonicalIterator", ptr %4, i32 0, i32 3
  %47 = load ptr, ptr %46, align 8, !tbaa !13
  call void @uprv_free_77(ptr noundef %47)
  %48 = getelementptr inbounds nuw %"class.icu_77::CanonicalIterator", ptr %4, i32 0, i32 3
  store ptr null, ptr %48, align 8, !tbaa !13
  %49 = getelementptr inbounds nuw %"class.icu_77::CanonicalIterator", ptr %4, i32 0, i32 4
  store i32 0, ptr %49, align 8, !tbaa !24
  br label %50

50:                                               ; preds = %45, %1
  %51 = getelementptr inbounds nuw %"class.icu_77::CanonicalIterator", ptr %4, i32 0, i32 5
  %52 = load ptr, ptr %51, align 8, !tbaa !25
  %53 = icmp ne ptr %52, null
  br i1 %53, label %54, label %58

54:                                               ; preds = %50
  %55 = getelementptr inbounds nuw %"class.icu_77::CanonicalIterator", ptr %4, i32 0, i32 5
  %56 = load ptr, ptr %55, align 8, !tbaa !25
  call void @uprv_free_77(ptr noundef %56)
  %57 = getelementptr inbounds nuw %"class.icu_77::CanonicalIterator", ptr %4, i32 0, i32 5
  store ptr null, ptr %57, align 8, !tbaa !25
  br label %58

58:                                               ; preds = %54, %50
  %59 = getelementptr inbounds nuw %"class.icu_77::CanonicalIterator", ptr %4, i32 0, i32 6
  %60 = load ptr, ptr %59, align 8, !tbaa !26
  %61 = icmp ne ptr %60, null
  br i1 %61, label %62, label %67

62:                                               ; preds = %58
  %63 = getelementptr inbounds nuw %"class.icu_77::CanonicalIterator", ptr %4, i32 0, i32 6
  %64 = load ptr, ptr %63, align 8, !tbaa !26
  call void @uprv_free_77(ptr noundef %64)
  %65 = getelementptr inbounds nuw %"class.icu_77::CanonicalIterator", ptr %4, i32 0, i32 6
  store ptr null, ptr %65, align 8, !tbaa !26
  %66 = getelementptr inbounds nuw %"class.icu_77::CanonicalIterator", ptr %4, i32 0, i32 7
  store i32 0, ptr %66, align 8, !tbaa !27
  br label %67

67:                                               ; preds = %62, %58
  call void @llvm.lifetime.end.p0(i64 4, ptr %3) #10
  ret void
}