; Function Attrs: mustprogress uwtable
define void @_ZN6icu_7717CanonicalIterator11cleanPiecesEv(ptr noundef nonnull align 8 captures(none) dereferenceable(200) %0) local_unnamed_addr #1 align 2 {
  %2 = getelementptr inbounds nuw i8, ptr %0, i64 80
  %3 = load ptr, ptr %2, align 8, !tbaa !8
  %.not = icmp eq ptr %3, null
  br i1 %.not, label %24, label %.preheader11

.preheader11:                                     ; preds = %1
  %4 = getelementptr inbounds nuw i8, ptr %0, i64 88
  %5 = load i32, ptr %4, align 8, !tbaa !20
  %6 = icmp sgt i32 %5, 0
  br i1 %6, label %.lr.ph, label %._crit_edge

.lr.ph:                                           ; preds = %.preheader11, %19
  %7 = phi i32 [ %20, %19 ], [ %5, %.preheader11 ]
  %indvars.iv = phi i64 [ %indvars.iv.next, %19 ], [ 0, %.preheader11 ]
  %8 = load ptr, ptr %2, align 8, !tbaa !8
  %9 = getelementptr inbounds nuw ptr, ptr %8, i64 %indvars.iv
  %10 = load ptr, ptr %9, align 8, !tbaa !30
  %.not10 = icmp eq ptr %10, null
  br i1 %.not10, label %19, label %11

11:                                               ; preds = %.lr.ph
  %12 = getelementptr inbounds i8, ptr %10, i64 -8
  %13 = load i64, ptr %12, align 8
  %14 = icmp eq i64 %13, 0
  br i1 %14, label %.loopexit, label %.preheader.preheader

.preheader.preheader:                             ; preds = %11
  %15 = getelementptr inbounds %"class.icu_77::UnicodeString", ptr %10, i64 %13
  br label %.preheader

.preheader:                                       ; preds = %.preheader.preheader, %.preheader
  %16 = phi ptr [ %17, %.preheader ], [ %15, %.preheader.preheader ]
  %17 = getelementptr inbounds i8, ptr %16, i64 -64
  tail call void @_ZN6icu_7713UnicodeStringD1Ev(ptr noundef nonnull align 8 dereferenceable(64) %17) #13
  %18 = icmp eq ptr %17, %10
  br i1 %18, label %.loopexit, label %.preheader

.loopexit:                                        ; preds = %.preheader, %11
  tail call void @_ZN6icu_777UMemorydaEPv(ptr noundef nonnull %12) #13
  %.pre = load i32, ptr %4, align 8, !tbaa !20
  br label %19

19:                                               ; preds = %.lr.ph, %.loopexit
  %20 = phi i32 [ %7, %.lr.ph ], [ %.pre, %.loopexit ]
  %indvars.iv.next = add nuw nsw i64 %indvars.iv, 1
  %21 = sext i32 %20 to i64
  %22 = icmp slt i64 %indvars.iv.next, %21
  br i1 %22, label %.lr.ph, label %._crit_edge.loopexit, !llvm.loop !35

._crit_edge.loopexit:                             ; preds = %19
  %.pre14 = load ptr, ptr %2, align 8, !tbaa !8
  br label %._crit_edge

._crit_edge:                                      ; preds = %._crit_edge.loopexit, %.preheader11
  %23 = phi ptr [ %.pre14, %._crit_edge.loopexit ], [ %3, %.preheader11 ]
  tail call void @uprv_free_77(ptr noundef %23)
  store ptr null, ptr %2, align 8, !tbaa !8
  store i32 0, ptr %4, align 8, !tbaa !20
  br label %24

24:                                               ; preds = %._crit_edge, %1
  %25 = getelementptr inbounds nuw i8, ptr %0, i64 96
  %26 = load ptr, ptr %25, align 8, !tbaa !26
  %.not8 = icmp eq ptr %26, null
  br i1 %.not8, label %28, label %27

27:                                               ; preds = %24
  tail call void @uprv_free_77(ptr noundef nonnull %26)
  store ptr null, ptr %25, align 8, !tbaa !26
  br label %28

28:                                               ; preds = %27, %24
  %29 = getelementptr inbounds nuw i8, ptr %0, i64 104
  %30 = load ptr, ptr %29, align 8, !tbaa !27
  %.not9 = icmp eq ptr %30, null
  br i1 %.not9, label %33, label %31

31:                                               ; preds = %28
  tail call void @uprv_free_77(ptr noundef nonnull %30)
  store ptr null, ptr %29, align 8, !tbaa !27
  %32 = getelementptr inbounds nuw i8, ptr %0, i64 112
  store i32 0, ptr %32, align 8, !tbaa !28
  br label %33

33:                                               ; preds = %31, %28
  ret void
}